; Function Attrs: nounwind uwtable
define double @IDASensWrmsNorm(ptr noundef readonly captures(none) %0, ptr noundef %1, ptr noundef %2, i32 noundef %3) local_unnamed_addr #0 {
  %.not = icmp eq i32 %3, 0
  %5 = getelementptr inbounds nuw i8, ptr %0, i64 160
  %6 = load i32, ptr %5, align 8, !tbaa !167
  br i1 %.not, label %13, label %7

7:                                                ; preds = %4
  %8 = getelementptr inbounds nuw i8, ptr %0, i64 680
  %9 = load ptr, ptr %8, align 8, !tbaa !146
  %10 = getelementptr inbounds nuw i8, ptr %0, i64 2040
  %11 = load ptr, ptr %10, align 8, !tbaa !122
  %12 = tail call i32 @N_VWrmsNormMaskVectorArray(i32 noundef %6, ptr noundef %1, ptr noundef %2, ptr noundef %9, ptr noundef %11) #14
  br label %17

13:                                               ; preds = %4
  %14 = getelementptr inbounds nuw i8, ptr %0, i64 2040
  %15 = load ptr, ptr %14, align 8, !tbaa !122
  %16 = tail call i32 @N_VWrmsNormVectorArray(i32 noundef %6, ptr noundef %1, ptr noundef %2, ptr noundef %15) #14
  br label %17

17:                                               ; preds = %13, %7
  %18 = getelementptr inbounds nuw i8, ptr %0, i64 2040
  %19 = load ptr, ptr %18, align 8, !tbaa !122
  %20 = load double, ptr %19, align 8, !tbaa !87
  %21 = getelementptr inbounds nuw i8, ptr %0, i64 160
  %22 = load i32, ptr %21, align 8, !tbaa !167
  %23 = icmp sgt i32 %22, 1
  br i1 %23, label %.lr.ph.preheader, label %._crit_edge

.lr.ph.preheader:                                 ; preds = %17
  %wide.trip.count = zext nneg i32 %22 to i64
  br label %.lr.ph

.lr.ph:                                           ; preds = %.lr.ph.preheader, %.lr.ph
  %indvars.iv = phi i64 [ 1, %.lr.ph.preheader ], [ %indvars.iv.next, %.lr.ph ]
  %.022 = phi double [ %20, %.lr.ph.preheader ], [ %.1, %.lr.ph ]
  %24 = getelementptr inbounds nuw double, ptr %19, i64 %indvars.iv
  %25 = load double, ptr %24, align 8, !tbaa !87
  %26 = fcmp ogt double %25, %.022
  %.1 = select i1 %26, double %25, double %.022
  %indvars.iv.next = add nuw nsw i64 %indvars.iv, 1
  %exitcond.not = icmp eq i64 %indvars.iv.next, %wide.trip.count
  br i1 %exitcond.not, label %._crit_edge, label %.lr.ph

._crit_edge:                                      ; preds = %.lr.ph, %17
  %.0.lcssa = phi double [ %20, %17 ], [ %.1, %.lr.ph ]
  ret double %.0.lcssa
}